(dp1
S'files'
p2
(dp3
S'convert'
p4
(dp5
S'index'
p6
(dp7
S'html_filename'
p8
S'convert.html'
p9
sS'name'
p10
g4
sS'nums'
p11
ccopy_reg
_reconstructor
p12
(ccoverage.results
Numbers
p13
c__builtin__
object
p14
NtRp15
(dp16
S'n_files'
p17
I1
sS'n_branches'
p18
I0
sS'n_statements'
p19
I32
sS'n_excluded'
p20
I0
sS'n_partial_branches'
p21
I0
sS'n_missing'
p22
I0
sS'n_missing_branches'
p23
I0
sbssS'hash'
p24
S'\xa1C\x8e\xf9\xa3\x8f\x7f\x11t\xbc\x8b\x99\xe4E$L'
p25
ssS'readconfiguration'
p26
(dp27
S'index'
p28
(dp29
S'html_filename'
p30
S'readconfiguration.html'
p31
sS'name'
p32
S'readconfiguration'
p33
sS'nums'
p34
g12
(g13
g14
NtRp35
(dp36
g17
I1
sg18
I0
sg19
I44
sg20
I0
sg21
I0
sg22
I31
sg23
I0
sbssS'hash'
p37
S'$\x84E0\xe5[\x02\xcd\xc6\xd1\x05\xbb,\x80\xd6K'
p38
ssS'sudokubacktrack'
p39
(dp40
S'index'
p41
(dp42
S'html_filename'
p43
S'sudokubacktrack.html'
p44
sS'name'
p45
g39
sS'nums'
p46
g12
(g13
g14
NtRp47
(dp48
g17
I1
sg18
I0
sg19
I121
sg20
I0
sg21
I0
sg22
I2
sg23
I0
sbssS'hash'
p49
S'm\x18\xc36\x13\x04\xb8k\xff\xc6R\xec\xadfA\x02'
p50
ssS'storer'
p51
(dp52
S'index'
p53
(dp54
g30
S'storer.html'
p55
sg32
S'storer'
p56
sg34
g12
(g13
g14
NtRp57
(dp58
g17
I1
sg18
I0
sg19
I45
sg20
I0
sg21
I0
sg22
I21
sg23
I0
sbssS'hash'
p59
S'P\x04\x16\xb7\xe0 5\xc7Yr\xe1O(\xeb8\x9d'
p60
ssS'solver'
p61
(dp62
g6
(dp63
g8
S'solver.html'
p64
sg10
g61
sg11
g12
(g13
g14
NtRp65
(dp66
g17
I1
sg18
I0
sg19
I36
sg20
I0
sg21
I0
sg22
I0
sg23
I0
sbssg24
S'\x07kHg\xe8\xbaO\xec\x93\rJ\x19B\x89\x99\xc7'
p67
ssS'readfiles'
p68
(dp69
g6
(dp70
g8
S'readfiles.html'
p71
sg10
g68
sg11
g12
(g13
g14
NtRp72
(dp73
g17
I1
sg18
I0
sg19
I56
sg20
I0
sg21
I0
sg22
I0
sg23
I0
sbssg24
S'\x06FE%b\xb5+\x0eU\xd3\xbb\xde~A\x91\xc2'
p74
ssS'test_configuration_class'
p75
(dp76
S'index'
p77
(dp78
S'html_filename'
p79
S'test_configuration_class.html'
p80
sS'name'
p81
g75
sS'nums'
p82
g12
(g13
g14
NtRp83
(dp84
g17
I1
sg18
I0
sg19
I35
sg20
I0
sg21
I0
sg22
I1
sg23
I0
sbssS'hash'
p85
S'_\xb9\x92m^#\x7f\xe2\xcb\x98\xc2&k\xf6\x96\xf2'
p86
ssS'norvigalgorithm'
p87
(dp88
g6
(dp89
S'html_filename'
p90
S'norvigalgorithm.html'
p91
sS'name'
p92
S'norvigalgorithm'
p93
sS'nums'
p94
g12
(g13
g14
NtRp95
(dp96
g17
I1
sg18
I0
sg19
I91
sg20
I0
sg21
I0
sg22
I0
sg23
I0
sbssg24
S'A\x96\x88b\x83>\xf1\xa5\xceX\x13\xdf\xabs\xac\x93'
p97
ssS'test_storesetting_class'
p98
(dp99
g53
(dp100
S'html_filename'
p101
S'test_storesetting_class.html'
p102
sS'name'
p103
g98
sS'nums'
p104
g12
(g13
g14
NtRp105
(dp106
g17
I1
sg18
I0
sg19
I20
sg20
I0
sg21
I0
sg22
I1
sg23
I0
sbssg59
S'\r\x8bU\xe0\n\xad|\xe5o\xc6\xf4\xdf"\xcd\xaes'
p107
ssS'test_readfile_class'
p108
(dp109
g28
(dp110
S'html_filename'
p111
S'test_readfile_class.html'
p112
sS'name'
p113
g108
sS'nums'
p114
g12
(g13
g14
NtRp115
(dp116
g17
I1
sg18
I0
sg19
I39
sg20
I0
sg21
I0
sg22
I1
sg23
I0
sbssg37
S'0;\xd1\xca\xf5E\xef+\x9d\xcf\x03\x0c\x07*\xca,'
p117
ssS'test_storer_class'
p118
(dp119
g53
(dp120
g101
S'test_storer_class.html'
p121
sg103
g118
sg104
g12
(g13
g14
NtRp122
(dp123
g17
I1
sg18
I0
sg19
I32
sg20
I0
sg21
I0
sg22
I3
sg23
I0
sbssg59
S'k{\xab\xaa\xd99\xad\xf9\xc6\xee\xed\xed\xa8\xc37u'
p124
ssS'norvig_tests'
p125
(dp126
g6
(dp127
g90
S'norvig_tests.html'
p128
sg92
S'norvig_tests'
p129
sg94
g12
(g13
g14
NtRp130
(dp131
g17
I1
sg18
I0
sg19
I62
sg20
I0
sg21
I0
sg22
I1
sg23
I0
sbssg24
S'\xa1\x93\xb9\xb4\xaf\x1b\xf3mT^\xd9\xd8)5\xbe('
p132
ssS'tests_sudoku'
p133
(dp134
g41
(dp135
g43
S'tests_sudoku.html'
p136
sg45
g133
sg46
g12
(g13
g14
NtRp137
(dp138
g17
I1
sg18
I0
sg19
I89
sg20
I0
sg21
I0
sg22
I1
sg23
I0
sbssg49
S'"\xbe\xd9\xef\x9e\n\xf9\xf7\x9c\x93z\xe3j6\x1a\xed'
p139
ssS'convert_tests'
p140
(dp141
g6
(dp142
g8
S'convert_tests.html'
p143
sg10
g140
sg11
g12
(g13
g14
NtRp144
(dp145
g17
I1
sg18
I0
sg19
I29
sg20
I0
sg21
I0
sg22
I1
sg23
I0
sbssg24
S'P\xb6_7`\xd4C\xb5\x00\xa8g\x90\xc4\x8a\xd3T'
p146
ssS'configuration'
p147
(dp148
g77
(dp149
g79
S'configuration.html'
p150
sg81
g147
sg82
g12
(g13
g14
NtRp151
(dp152
g17
I1
sg18
I0
sg19
I26
sg20
I0
sg21
I0
sg22
I0
sg23
I0
sbssg85
S'\xb0\x92\xaf\n\xe0\x92\x88\xad\xbfa\x11\x9e\xa8\xdbxR'
p153
ssS'readfiles_tests'
p154
(dp155
g6
(dp156
g8
S'readfiles_tests.html'
p157
sg10
g154
sg11
g12
(g13
g14
NtRp158
(dp159
g17
I1
sg18
I0
sg19
I56
sg20
I0
sg21
I0
sg22
I1
sg23
I0
sbssg24
S'\xe8\x14\n\xa9\x17\x0c\xeeC\xf8\x1c\xa5.B3\x0b\x02'
p160
ssS'solver_tests'
p161
(dp162
g6
(dp163
g8
S'solver_tests.html'
p164
sg10
g161
sg11
g12
(g13
g14
NtRp165
(dp166
g17
I1
sg18
I0
sg19
I32
sg20
I0
sg21
I0
sg22
I1
sg23
I0
sbssg24
S'\xb7\xf9\xa4?\x17\x8eL\x14\xcb0\x92F\xcd!\xa79'
p167
ssS'store_setting'
p168
(dp169
g53
(dp170
g101
S'store_setting.html'
p171
sg103
g168
sg104
g12
(g13
g14
NtRp172
(dp173
g17
I1
sg18
I0
sg19
I19
sg20
I0
sg21
I0
sg22
I9
sg23
I0
sbssg59
S'\xaa\xce\xbe\xd08\\\xf9\x8e\xf43\xef\x19\xeeg\xd1\xbc'
p174
sssS'version'
p175
S'3.6'
p176
sS'settings'
p177
S'3\xcf\xa1\x19.\x88o$\x8cA\xde\xbd\xcd\x06\xa1\x0f'
p178
sS'format'
p179
I1
s.